target datalayout = "e-m:e-p270:32:32-p271:32:32-p272:64:64-i64:64-i128:128-f80:128-n8:16:32:64-S128"
target triple = "x86_64-pc-linux-gnu"

; Function Attrs: mustprogress nounwind uwtable
define noundef i32 @_ZN7lodepng15getPaletteValueEPKhmi(ptr noundef %0, i64 noundef %1, i32 noundef %2) #3 {
  %4 = alloca i32, align 4
  %5 = alloca ptr, align 8
  %6 = alloca i64, align 8
  %7 = alloca i32, align 4
  store ptr %0, ptr %5, align 8, !tbaa !13
  store i64 %1, ptr %6, align 8, !tbaa !15
  store i32 %2, ptr %7, align 4, !tbaa !9
  %8 = load i32, ptr %7, align 4, !tbaa !9
  %9 = icmp eq i32 %8, 8
  br i1 %9, label %10, label %16

10:                                               ; preds = %3
  %11 = load ptr, ptr %5, align 8, !tbaa !13
  %12 = load i64, ptr %6, align 8, !tbaa !15
  %13 = getelementptr inbounds nuw i8, ptr %11, i64 %12
  %14 = load i8, ptr %13, align 1, !tbaa !20
  %15 = zext i8 %14 to i32
  store i32 %15, ptr %4, align 4
  br label %64

16:                                               ; preds = %3
  %17 = load i32, ptr %7, align 4, !tbaa !9
  %18 = icmp eq i32 %17, 4
  br i1 %18, label %19, label %32

19:                                               ; preds = %16
  %20 = load ptr, ptr %5, align 8, !tbaa !13
  %21 = load i64, ptr %6, align 8, !tbaa !15
  %22 = udiv i64 %21, 2
  %23 = getelementptr inbounds nuw i8, ptr %20, i64 %22
  %24 = load i8, ptr %23, align 1, !tbaa !20
  %25 = zext i8 %24 to i32
  %26 = load i64, ptr %6, align 8, !tbaa !15
  %27 = urem i64 %26, 2
  %28 = mul i64 %27, 4
  %29 = trunc i64 %28 to i32
  %30 = ashr i32 %25, %29
  %31 = and i32 %30, 15
  store i32 %31, ptr %4, align 4
  br label %64

32:                                               ; preds = %16
  %33 = load i32, ptr %7, align 4, !tbaa !9
  %34 = icmp eq i32 %33, 2
  br i1 %34, label %35, label %48

35:                                               ; preds = %32
  %36 = load ptr, ptr %5, align 8, !tbaa !13
  %37 = load i64, ptr %6, align 8, !tbaa !15
  %38 = udiv i64 %37, 4
  %39 = getelementptr inbounds nuw i8, ptr %36, i64 %38
  %40 = load i8, ptr %39, align 1, !tbaa !20
  %41 = zext i8 %40 to i32
  %42 = load i64, ptr %6, align 8, !tbaa !15
  %43 = urem i64 %42, 4
  %44 = mul i64 %43, 2
  %45 = trunc i64 %44 to i32
  %46 = ashr i32 %41, %45
  %47 = and i32 %46, 3
  store i32 %47, ptr %4, align 4
  br label %64

48:                                               ; preds = %32
  %49 = load i32, ptr %7, align 4, !tbaa !9
  %50 = icmp eq i32 %49, 1
  br i1 %50, label %51, label %63

51:                                               ; preds = %48
  %52 = load ptr, ptr %5, align 8, !tbaa !13
  %53 = load i64, ptr %6, align 8, !tbaa !15
  %54 = udiv i64 %53, 8
  %55 = getelementptr inbounds nuw i8, ptr %52, i64 %54
  %56 = load i8, ptr %55, align 1, !tbaa !20
  %57 = zext i8 %56 to i32
  %58 = load i64, ptr %6, align 8, !tbaa !15
  %59 = urem i64 %58, 8
  %60 = trunc i64 %59 to i32
  %61 = ashr i32 %57, %60
  %62 = and i32 %61, 1
  store i32 %62, ptr %4, align 4
  br label %64

63:                                               ; preds = %48
  store i32 0, ptr %4, align 4
  br label %64

64:                                               ; preds = %63, %51, %35, %19, %10
  %65 = load i32, ptr %4, align 4
  ret i32 %65
}