; Function Attrs: mustprogress nofree norecurse nosync nounwind willreturn memory(argmem: read) uwtable
define noundef range(i32 0, 256) i32 @_ZN7lodepng15getPaletteValueEPKhmi(ptr noundef readonly captures(none) %0, i64 noundef %1, i32 noundef %2) local_unnamed_addr #6 {
  switch i32 %2, label %35 [
    i32 8, label %4
    i32 4, label %8
    i32 2, label %17
    i32 1, label %26
  ]

4:                                                ; preds = %3
  %5 = getelementptr inbounds nuw i8, ptr %0, i64 %1
  %6 = load i8, ptr %5, align 1, !tbaa !18
  %7 = zext i8 %6 to i32
  br label %35

8:                                                ; preds = %3
  %9 = lshr i64 %1, 1
  %10 = getelementptr inbounds nuw i8, ptr %0, i64 %9
  %11 = load i8, ptr %10, align 1, !tbaa !18
  %12 = zext i8 %11 to i32
  %.tr16 = trunc i64 %1 to i32
  %13 = shl i32 %.tr16, 2
  %14 = and i32 %13, 4
  %15 = lshr i32 %12, %14
  %16 = and i32 %15, 15
  br label %35

17:                                               ; preds = %3
  %18 = lshr i64 %1, 2
  %19 = getelementptr inbounds nuw i8, ptr %0, i64 %18
  %20 = load i8, ptr %19, align 1, !tbaa !18
  %21 = zext i8 %20 to i32
  %.tr = trunc i64 %1 to i32
  %22 = shl i32 %.tr, 1
  %23 = and i32 %22, 6
  %24 = lshr i32 %21, %23
  %25 = and i32 %24, 3
  br label %35

26:                                               ; preds = %3
  %27 = lshr i64 %1, 3
  %28 = getelementptr inbounds nuw i8, ptr %0, i64 %27
  %29 = load i8, ptr %28, align 1, !tbaa !18
  %30 = zext i8 %29 to i32
  %31 = trunc i64 %1 to i32
  %32 = and i32 %31, 7
  %33 = lshr i32 %30, %32
  %34 = and i32 %33, 1
  br label %35

35:                                               ; preds = %3, %26, %17, %8, %4
  %.0 = phi i32 [ %7, %4 ], [ %16, %8 ], [ %25, %17 ], [ %34, %26 ], [ 0, %3 ]
  ret i32 %.0
}